target datalayout = "e-m:e-p270:32:32-p271:32:32-p272:64:64-i64:64-i128:128-f80:128-n8:16:32:64-S128"
target triple = "x86_64-pc-linux-gnu"

%struct._cmstransform_struct = type { i32, i32, ptr, ptr, ptr, ptr, ptr, %struct._cmsCACHE, ptr, ptr, ptr, ptr, i32, i32, %struct.cmsCIEXYZ, %struct.cmsCIEXYZ, ptr, i32, double, i32, ptr, ptr, ptr, ptr, ptr, i32, i32 }
%struct._cmsCACHE = type { [16 x i16], [16 x i16] }
%struct.cmsCIEXYZ = type { double, double, double }

; Function Attrs: nounwind uwtable
define internal i32 @PixelSize(i32 noundef %0) #0 {
  %2 = alloca i32, align 4
  %3 = alloca i32, align 4
  %4 = alloca i32, align 4
  store i32 %0, ptr %3, align 4
  %5 = load i32, ptr %3, align 4
  %6 = and i32 %5, 7
  store i32 %6, ptr %4, align 4
  %7 = load i32, ptr %4, align 4
  %8 = icmp eq i32 %7, 0
  br i1 %8, label %9, label %10

9:                                                ; preds = %1
  store i32 8, ptr %2, align 4
  br label %12

10:                                               ; preds = %1
  %11 = load i32, ptr %4, align 4
  store i32 %11, ptr %2, align 4
  br label %12

12:                                               ; preds = %10, %9
  %13 = load i32, ptr %2, align 4
  ret i32 %13
}

; Function Attrs: nounwind uwtable
define internal ptr @PackXYZFloatFromFloat(ptr noundef %0, ptr noundef %1, ptr noundef %2, i32 noundef %3) #0 {
  %5 = alloca ptr, align 8
  %6 = alloca ptr, align 8
  %7 = alloca ptr, align 8
  %8 = alloca ptr, align 8
  %9 = alloca i32, align 4
  %10 = alloca ptr, align 8
  store ptr %0, ptr %6, align 8
  store ptr %1, ptr %7, align 8
  store ptr %2, ptr %8, align 8
  store i32 %3, ptr %9, align 4
  %11 = load ptr, ptr %8, align 8
  store ptr %11, ptr %10, align 8
  %12 = load ptr, ptr %6, align 8
  %13 = getelementptr inbounds %struct._cmstransform_struct, ptr %12, i32 0, i32 1
  %14 = load i32, ptr %13, align 4
  %15 = lshr i32 %14, 12
  %16 = and i32 %15, 1
  %17 = icmp ne i32 %16, 0
  br i1 %17, label %18, label %56

18:                                               ; preds = %4
  %19 = load ptr, ptr %6, align 8
  %20 = getelementptr inbounds %struct._cmstransform_struct, ptr %19, i32 0, i32 1
  %21 = load i32, ptr %20, align 4
  %22 = call i32 @PixelSize(i32 noundef %21)
  %23 = load i32, ptr %9, align 4
  %24 = udiv i32 %23, %22
  store i32 %24, ptr %9, align 4
  %25 = load ptr, ptr %7, align 8
  %26 = getelementptr inbounds float, ptr %25, i64 0
  %27 = load float, ptr %26, align 4
  %28 = fpext float %27 to double
  %29 = fmul double %28, 0x3FFFFFE000000000
  %30 = fptrunc double %29 to float
  %31 = load ptr, ptr %10, align 8
  %32 = getelementptr inbounds float, ptr %31, i64 0
  store float %30, ptr %32, align 4
  %33 = load ptr, ptr %7, align 8
  %34 = getelementptr inbounds float, ptr %33, i64 1
  %35 = load float, ptr %34, align 4
  %36 = fpext float %35 to double
  %37 = fmul double %36, 0x3FFFFFE000000000
  %38 = fptrunc double %37 to float
  %39 = load ptr, ptr %10, align 8
  %40 = load i32, ptr %9, align 4
  %41 = zext i32 %40 to i64
  %42 = getelementptr inbounds float, ptr %39, i64 %41
  store float %38, ptr %42, align 4
  %43 = load ptr, ptr %7, align 8
  %44 = getelementptr inbounds float, ptr %43, i64 2
  %45 = load float, ptr %44, align 4
  %46 = fpext float %45 to double
  %47 = fmul double %46, 0x3FFFFFE000000000
  %48 = fptrunc double %47 to float
  %49 = load ptr, ptr %10, align 8
  %50 = load i32, ptr %9, align 4
  %51 = mul i32 %50, 2
  %52 = zext i32 %51 to i64
  %53 = getelementptr inbounds float, ptr %49, i64 %52
  store float %48, ptr %53, align 4
  %54 = load ptr, ptr %8, align 8
  %55 = getelementptr inbounds i8, ptr %54, i64 4
  store ptr %55, ptr %5, align 8
  br label %91

56:                                               ; preds = %4
  %57 = load ptr, ptr %7, align 8
  %58 = getelementptr inbounds float, ptr %57, i64 0
  %59 = load float, ptr %58, align 4
  %60 = fpext float %59 to double
  %61 = fmul double %60, 0x3FFFFFE000000000
  %62 = fptrunc double %61 to float
  %63 = load ptr, ptr %10, align 8
  %64 = getelementptr inbounds float, ptr %63, i64 0
  store float %62, ptr %64, align 4
  %65 = load ptr, ptr %7, align 8
  %66 = getelementptr inbounds float, ptr %65, i64 1
  %67 = load float, ptr %66, align 4
  %68 = fpext float %67 to double
  %69 = fmul double %68, 0x3FFFFFE000000000
  %70 = fptrunc double %69 to float
  %71 = load ptr, ptr %10, align 8
  %72 = getelementptr inbounds float, ptr %71, i64 1
  store float %70, ptr %72, align 4
  %73 = load ptr, ptr %7, align 8
  %74 = getelementptr inbounds float, ptr %73, i64 2
  %75 = load float, ptr %74, align 4
  %76 = fpext float %75 to double
  %77 = fmul double %76, 0x3FFFFFE000000000
  %78 = fptrunc double %77 to float
  %79 = load ptr, ptr %10, align 8
  %80 = getelementptr inbounds float, ptr %79, i64 2
  store float %78, ptr %80, align 4
  %81 = load ptr, ptr %8, align 8
  %82 = load ptr, ptr %6, align 8
  %83 = getelementptr inbounds %struct._cmstransform_struct, ptr %82, i32 0, i32 1
  %84 = load i32, ptr %83, align 4
  %85 = lshr i32 %84, 7
  %86 = and i32 %85, 7
  %87 = zext i32 %86 to i64
  %88 = mul i64 %87, 4
  %89 = add i64 12, %88
  %90 = getelementptr inbounds i8, ptr %81, i64 %89
  store ptr %90, ptr %5, align 8
  br label %91

91:                                               ; preds = %56, %18
  %92 = load ptr, ptr %5, align 8
  ret ptr %92
}