; Function Attrs: mustprogress nofree norecurse nosync nounwind willreturn memory(argmem: readwrite) uwtable
define internal nonnull ptr @PackXYZFloatFromFloat(ptr nocapture noundef readonly %0, ptr nocapture noundef readonly %1, ptr noundef writeonly %2, i32 noundef %3) #3 {
  %5 = getelementptr inbounds i8, ptr %0, i64 4
  %6 = load i32, ptr %5, align 4
  %7 = and i32 %6, 4096
  %.not = icmp eq i32 %7, 0
  br i1 %.not, label %26, label %8

8:                                                ; preds = %4
  %9 = and i32 %6, 7
  %10 = icmp eq i32 %9, 0
  %..i = select i1 %10, i32 8, i32 %9
  %11 = udiv i32 %3, %..i
  %12 = load float, ptr %1, align 4
  %13 = fmul float %12, 0x3FFFFFE000000000
  store float %13, ptr %2, align 4
  %14 = getelementptr inbounds i8, ptr %1, i64 4
  %15 = load float, ptr %14, align 4
  %16 = fmul float %15, 0x3FFFFFE000000000
  %17 = zext i32 %11 to i64
  %18 = getelementptr inbounds float, ptr %2, i64 %17
  store float %16, ptr %18, align 4
  %19 = getelementptr inbounds i8, ptr %1, i64 8
  %20 = load float, ptr %19, align 4
  %21 = fmul float %20, 0x3FFFFFE000000000
  %22 = shl i32 %11, 1
  %23 = zext i32 %22 to i64
  %24 = getelementptr inbounds float, ptr %2, i64 %23
  store float %21, ptr %24, align 4
  %25 = getelementptr inbounds i8, ptr %2, i64 4
  br label %43

26:                                               ; preds = %4
  %27 = load float, ptr %1, align 4
  %28 = fmul float %27, 0x3FFFFFE000000000
  store float %28, ptr %2, align 4
  %29 = getelementptr inbounds i8, ptr %1, i64 4
  %30 = load float, ptr %29, align 4
  %31 = fmul float %30, 0x3FFFFFE000000000
  %32 = getelementptr inbounds i8, ptr %2, i64 4
  store float %31, ptr %32, align 4
  %33 = getelementptr inbounds i8, ptr %1, i64 8
  %34 = load float, ptr %33, align 4
  %35 = fmul float %34, 0x3FFFFFE000000000
  %36 = getelementptr inbounds i8, ptr %2, i64 8
  store float %35, ptr %36, align 4
  %37 = load i32, ptr %5, align 4
  %38 = lshr i32 %37, 5
  %39 = and i32 %38, 28
  %40 = zext nneg i32 %39 to i64
  %41 = getelementptr inbounds i8, ptr %2, i64 %40
  %42 = getelementptr inbounds i8, ptr %41, i64 12
  br label %43

43:                                               ; preds = %26, %8
  %.0 = phi ptr [ %25, %8 ], [ %42, %26 ]
  ret ptr %.0
}